target datalayout = "e-m:e-p270:32:32-p271:32:32-p272:64:64-i64:64-i128:128-f80:128-n8:16:32:64-S128"
target triple = "x86_64-pc-linux-gnu"

; Function Attrs: nounwind uwtable
define internal void @asn1_put_length(ptr noundef %0, i32 noundef %1) #0 {
  %3 = alloca ptr, align 8
  %4 = alloca i32, align 4
  %5 = alloca ptr, align 8
  %6 = alloca i32, align 4
  %7 = alloca i32, align 4
  store ptr %0, ptr %3, align 8, !tbaa !3
  store i32 %1, ptr %4, align 4, !tbaa !17
  call void @llvm.lifetime.start.p0(i64 8, ptr %5) #7
  %8 = load ptr, ptr %3, align 8, !tbaa !3
  %9 = load ptr, ptr %8, align 8, !tbaa !10
  store ptr %9, ptr %5, align 8, !tbaa !10
  call void @llvm.lifetime.start.p0(i64 4, ptr %6) #7
  call void @llvm.lifetime.start.p0(i64 4, ptr %7) #7
  %10 = load i32, ptr %4, align 4, !tbaa !17
  %11 = icmp sle i32 %10, 127
  br i1 %11, label %12, label %17

12:                                               ; preds = %2
  %13 = load i32, ptr %4, align 4, !tbaa !17
  %14 = trunc i32 %13 to i8
  %15 = load ptr, ptr %5, align 8, !tbaa !10
  %16 = getelementptr inbounds nuw i8, ptr %15, i32 1
  store ptr %16, ptr %5, align 8, !tbaa !10
  store i8 %14, ptr %15, align 1, !tbaa !12
  br label %54

17:                                               ; preds = %2
  %18 = load i32, ptr %4, align 4, !tbaa !17
  store i32 %18, ptr %7, align 4, !tbaa !17
  store i32 0, ptr %6, align 4, !tbaa !17
  br label %19

19:                                               ; preds = %25, %17
  %20 = load i32, ptr %7, align 4, !tbaa !17
  %21 = icmp sgt i32 %20, 0
  br i1 %21, label %22, label %28

22:                                               ; preds = %19
  %23 = load i32, ptr %7, align 4, !tbaa !17
  %24 = ashr i32 %23, 8
  store i32 %24, ptr %7, align 4, !tbaa !17
  br label %25

25:                                               ; preds = %22
  %26 = load i32, ptr %6, align 4, !tbaa !17
  %27 = add nsw i32 %26, 1
  store i32 %27, ptr %6, align 4, !tbaa !17
  br label %19, !llvm.loop !25

28:                                               ; preds = %19
  %29 = load i32, ptr %6, align 4, !tbaa !17
  %30 = or i32 %29, 128
  %31 = trunc i32 %30 to i8
  %32 = load ptr, ptr %5, align 8, !tbaa !10
  %33 = getelementptr inbounds nuw i8, ptr %32, i32 1
  store ptr %33, ptr %5, align 8, !tbaa !10
  store i8 %31, ptr %32, align 1, !tbaa !12
  %34 = load i32, ptr %6, align 4, !tbaa !17
  store i32 %34, ptr %7, align 4, !tbaa !17
  br label %35

35:                                               ; preds = %39, %28
  %36 = load i32, ptr %6, align 4, !tbaa !17
  %37 = add nsw i32 %36, -1
  store i32 %37, ptr %6, align 4, !tbaa !17
  %38 = icmp sgt i32 %36, 0
  br i1 %38, label %39, label %49

39:                                               ; preds = %35
  %40 = load i32, ptr %4, align 4, !tbaa !17
  %41 = and i32 %40, 255
  %42 = trunc i32 %41 to i8
  %43 = load ptr, ptr %5, align 8, !tbaa !10
  %44 = load i32, ptr %6, align 4, !tbaa !17
  %45 = sext i32 %44 to i64
  %46 = getelementptr inbounds i8, ptr %43, i64 %45
  store i8 %42, ptr %46, align 1, !tbaa !12
  %47 = load i32, ptr %4, align 4, !tbaa !17
  %48 = ashr i32 %47, 8
  store i32 %48, ptr %4, align 4, !tbaa !17
  br label %35, !llvm.loop !26

49:                                               ; preds = %35
  %50 = load i32, ptr %7, align 4, !tbaa !17
  %51 = load ptr, ptr %5, align 8, !tbaa !10
  %52 = sext i32 %50 to i64
  %53 = getelementptr inbounds i8, ptr %51, i64 %52
  store ptr %53, ptr %5, align 8, !tbaa !10
  br label %54

54:                                               ; preds = %49, %12
  %55 = load ptr, ptr %5, align 8, !tbaa !10
  %56 = load ptr, ptr %3, align 8, !tbaa !3
  store ptr %55, ptr %56, align 8, !tbaa !10
  call void @llvm.lifetime.end.p0(i64 4, ptr %7) #7
  call void @llvm.lifetime.end.p0(i64 4, ptr %6) #7
  call void @llvm.lifetime.end.p0(i64 8, ptr %5) #7
  ret void
}

; Function Attrs: nounwind uwtable
define void @ASN1_put_object(ptr noundef %0, i32 noundef %1, i32 noundef %2, i32 noundef %3, i32 noundef %4) #0 {
  %6 = alloca ptr, align 8
  %7 = alloca i32, align 4
  %8 = alloca i32, align 4
  %9 = alloca i32, align 4
  %10 = alloca i32, align 4
  %11 = alloca ptr, align 8
  %12 = alloca i32, align 4
  %13 = alloca i32, align 4
  store ptr %0, ptr %6, align 8, !tbaa !3
  store i32 %1, ptr %7, align 4, !tbaa !17
  store i32 %2, ptr %8, align 4, !tbaa !17
  store i32 %3, ptr %9, align 4, !tbaa !17
  store i32 %4, ptr %10, align 4, !tbaa !17
  call void @llvm.lifetime.start.p0(i64 8, ptr %11) #7
  %14 = load ptr, ptr %6, align 8, !tbaa !3
  %15 = load ptr, ptr %14, align 8, !tbaa !10
  store ptr %15, ptr %11, align 8, !tbaa !10
  call void @llvm.lifetime.start.p0(i64 4, ptr %12) #7
  call void @llvm.lifetime.start.p0(i64 4, ptr %13) #7
  %16 = load i32, ptr %7, align 4, !tbaa !17
  %17 = icmp ne i32 %16, 0
  %18 = select i1 %17, i32 32, i32 0
  store i32 %18, ptr %12, align 4, !tbaa !17
  %19 = load i32, ptr %10, align 4, !tbaa !17
  %20 = and i32 %19, 192
  %21 = load i32, ptr %12, align 4, !tbaa !17
  %22 = or i32 %21, %20
  store i32 %22, ptr %12, align 4, !tbaa !17
  %23 = load i32, ptr %9, align 4, !tbaa !17
  %24 = icmp slt i32 %23, 31
  br i1 %24, label %25, label %33

25:                                               ; preds = %5
  %26 = load i32, ptr %12, align 4, !tbaa !17
  %27 = load i32, ptr %9, align 4, !tbaa !17
  %28 = and i32 %27, 31
  %29 = or i32 %26, %28
  %30 = trunc i32 %29 to i8
  %31 = load ptr, ptr %11, align 8, !tbaa !10
  %32 = getelementptr inbounds nuw i8, ptr %31, i32 1
  store ptr %32, ptr %11, align 8, !tbaa !10
  store i8 %30, ptr %31, align 1, !tbaa !12
  br label %84

33:                                               ; preds = %5
  %34 = load i32, ptr %12, align 4, !tbaa !17
  %35 = or i32 %34, 31
  %36 = trunc i32 %35 to i8
  %37 = load ptr, ptr %11, align 8, !tbaa !10
  %38 = getelementptr inbounds nuw i8, ptr %37, i32 1
  store ptr %38, ptr %11, align 8, !tbaa !10
  store i8 %36, ptr %37, align 1, !tbaa !12
  store i32 0, ptr %12, align 4, !tbaa !17
  %39 = load i32, ptr %9, align 4, !tbaa !17
  store i32 %39, ptr %13, align 4, !tbaa !17
  br label %40

40:                                               ; preds = %46, %33
  %41 = load i32, ptr %13, align 4, !tbaa !17
  %42 = icmp sgt i32 %41, 0
  br i1 %42, label %43, label %49

43:                                               ; preds = %40
  %44 = load i32, ptr %13, align 4, !tbaa !17
  %45 = ashr i32 %44, 7
  store i32 %45, ptr %13, align 4, !tbaa !17
  br label %46

46:                                               ; preds = %43
  %47 = load i32, ptr %12, align 4, !tbaa !17
  %48 = add nsw i32 %47, 1
  store i32 %48, ptr %12, align 4, !tbaa !17
  br label %40, !llvm.loop !23

49:                                               ; preds = %40
  %50 = load i32, ptr %12, align 4, !tbaa !17
  store i32 %50, ptr %13, align 4, !tbaa !17
  br label %51

51:                                               ; preds = %76, %49
  %52 = load i32, ptr %12, align 4, !tbaa !17
  %53 = add nsw i32 %52, -1
  store i32 %53, ptr %12, align 4, !tbaa !17
  %54 = icmp sgt i32 %52, 0
  br i1 %54, label %55, label %79

55:                                               ; preds = %51
  %56 = load i32, ptr %9, align 4, !tbaa !17
  %57 = and i32 %56, 127
  %58 = trunc i32 %57 to i8
  %59 = load ptr, ptr %11, align 8, !tbaa !10
  %60 = load i32, ptr %12, align 4, !tbaa !17
  %61 = sext i32 %60 to i64
  %62 = getelementptr inbounds i8, ptr %59, i64 %61
  store i8 %58, ptr %62, align 1, !tbaa !12
  %63 = load i32, ptr %12, align 4, !tbaa !17
  %64 = load i32, ptr %13, align 4, !tbaa !17
  %65 = sub nsw i32 %64, 1
  %66 = icmp ne i32 %63, %65
  br i1 %66, label %67, label %76

67:                                               ; preds = %55
  %68 = load ptr, ptr %11, align 8, !tbaa !10
  %69 = load i32, ptr %12, align 4, !tbaa !17
  %70 = sext i32 %69 to i64
  %71 = getelementptr inbounds i8, ptr %68, i64 %70
  %72 = load i8, ptr %71, align 1, !tbaa !12
  %73 = zext i8 %72 to i32
  %74 = or i32 %73, 128
  %75 = trunc i32 %74 to i8
  store i8 %75, ptr %71, align 1, !tbaa !12
  br label %76

76:                                               ; preds = %67, %55
  %77 = load i32, ptr %9, align 4, !tbaa !17
  %78 = ashr i32 %77, 7
  store i32 %78, ptr %9, align 4, !tbaa !17
  br label %51, !llvm.loop !24

79:                                               ; preds = %51
  %80 = load i32, ptr %13, align 4, !tbaa !17
  %81 = load ptr, ptr %11, align 8, !tbaa !10
  %82 = sext i32 %80 to i64
  %83 = getelementptr inbounds i8, ptr %81, i64 %82
  store ptr %83, ptr %11, align 8, !tbaa !10
  br label %84

84:                                               ; preds = %79, %25
  %85 = load i32, ptr %7, align 4, !tbaa !17
  %86 = icmp eq i32 %85, 2
  br i1 %86, label %87, label %90

87:                                               ; preds = %84
  %88 = load ptr, ptr %11, align 8, !tbaa !10
  %89 = getelementptr inbounds nuw i8, ptr %88, i32 1
  store ptr %89, ptr %11, align 8, !tbaa !10
  store i8 -128, ptr %88, align 1, !tbaa !12
  br label %92

90:                                               ; preds = %84
  %91 = load i32, ptr %8, align 4, !tbaa !17
  call void @asn1_put_length(ptr noundef %11, i32 noundef %91)
  br label %92

92:                                               ; preds = %90, %87
  %93 = load ptr, ptr %11, align 8, !tbaa !10
  %94 = load ptr, ptr %6, align 8, !tbaa !3
  store ptr %93, ptr %94, align 8, !tbaa !10
  call void @llvm.lifetime.end.p0(i64 4, ptr %13) #7
  call void @llvm.lifetime.end.p0(i64 4, ptr %12) #7
  call void @llvm.lifetime.end.p0(i64 8, ptr %11) #7
  ret void
}