; Function Attrs: nofree norecurse nosync nounwind memory(write, argmem: readwrite, inaccessiblemem: none) uwtable
define void @ASN1_put_object(ptr noundef captures(none) %0, i32 noundef %1, i32 noundef %2, i32 noundef %3, i32 noundef %4) local_unnamed_addr #3 {
  %6 = load ptr, ptr %0, align 8, !tbaa !3
  %.not = icmp eq i32 %1, 0
  %7 = select i1 %.not, i32 0, i32 32
  %8 = and i32 %4, 192
  %9 = or disjoint i32 %8, %7
  %10 = icmp slt i32 %3, 31
  br i1 %10, label %11, label %16

11:                                               ; preds = %5
  %12 = and i32 %3, 31
  %13 = or disjoint i32 %9, %12
  %14 = trunc nuw i32 %13 to i8
  %15 = getelementptr inbounds nuw i8, ptr %6, i64 1
  store i8 %14, ptr %6, align 1, !tbaa !8
  br label %33

16:                                               ; preds = %5
  %17 = trunc nuw i32 %9 to i8
  %18 = or disjoint i8 %17, 31
  store i8 %18, ptr %6, align 1, !tbaa !8
  br label %20

.preheader:                                       ; preds = %20
  %19 = getelementptr inbounds nuw i8, ptr %6, i64 1
  br label %23

20:                                               ; preds = %16, %20
  %indvars.iv = phi i64 [ 0, %16 ], [ %indvars.iv.next, %20 ]
  %.036 = phi i32 [ %3, %16 ], [ %21, %20 ]
  %.02335 = phi i32 [ 0, %16 ], [ %22, %20 ]
  %21 = lshr i32 %.036, 7
  %22 = add nuw nsw i32 %.02335, 1
  %.not39 = icmp ult i32 %.036, 128
  %indvars.iv.next = add nuw nsw i64 %indvars.iv, 1
  br i1 %.not39, label %.preheader, label %20, !llvm.loop !17

23:                                               ; preds = %.preheader, %23
  %indvars.iv41 = phi i64 [ %indvars.iv, %.preheader ], [ %indvars.iv.next42, %23 ]
  %.138 = phi i32 [ %22, %.preheader ], [ %29, %23 ]
  %.02437 = phi i32 [ %3, %.preheader ], [ %27, %23 ]
  %24 = trunc i32 %.02437 to i8
  %25 = and i8 %24, 127
  %26 = getelementptr inbounds nuw i8, ptr %19, i64 %indvars.iv41
  %.not27 = icmp eq i32 %.138, %22
  %masksel = select i1 %.not27, i8 0, i8 -128
  %spec.select = or disjoint i8 %25, %masksel
  store i8 %spec.select, ptr %26, align 1, !tbaa !8
  %27 = lshr i32 %.02437, 7
  %indvars.iv.next42 = add nsw i64 %indvars.iv41, -1
  %28 = icmp sgt i64 %indvars.iv41, 0
  %29 = trunc nuw nsw i64 %indvars.iv41 to i32
  br i1 %28, label %23, label %30, !llvm.loop !18

30:                                               ; preds = %23
  %31 = zext nneg i32 %22 to i64
  %32 = getelementptr inbounds nuw i8, ptr %19, i64 %31
  br label %33

33:                                               ; preds = %30, %11
  %.033 = phi ptr [ %15, %11 ], [ %32, %30 ]
  %34 = icmp eq i32 %1, 2
  br i1 %34, label %35, label %37

35:                                               ; preds = %33
  %36 = getelementptr inbounds nuw i8, ptr %.033, i64 1
  store i8 -128, ptr %.033, align 1, !tbaa !8
  br label %asn1_put_length.exit

37:                                               ; preds = %33
  %38 = icmp slt i32 %2, 128
  br i1 %38, label %39, label %.preheader.i

39:                                               ; preds = %37
  %40 = trunc i32 %2 to i8
  %41 = getelementptr inbounds nuw i8, ptr %.033, i64 1
  store i8 %40, ptr %.033, align 1, !tbaa !8
  br label %asn1_put_length.exit

.preheader.i:                                     ; preds = %37, %.preheader.i
  %indvars.iv.i = phi i64 [ %indvars.iv.next.i, %.preheader.i ], [ 1, %37 ]
  %.025.i = phi i32 [ %42, %.preheader.i ], [ %2, %37 ]
  %.01924.i = phi i32 [ %43, %.preheader.i ], [ 0, %37 ]
  %42 = lshr i32 %.025.i, 8
  %43 = add nuw nsw i32 %.01924.i, 1
  %.not.i = icmp samesign ult i32 %.025.i, 256
  %indvars.iv.next.i = add nuw nsw i64 %indvars.iv.i, 1
  br i1 %.not.i, label %44, label %.preheader.i, !llvm.loop !19

44:                                               ; preds = %.preheader.i
  %45 = trunc i32 %43 to i8
  %46 = or i8 %45, -128
  store i8 %46, ptr %.033, align 1, !tbaa !8
  br label %47

47:                                               ; preds = %47, %44
  %indvars.iv28.i = phi i64 [ %indvars.iv.i, %44 ], [ %indvars.iv.next29.i, %47 ]
  %.02126.i = phi i32 [ %2, %44 ], [ %50, %47 ]
  %indvars.iv.next29.i = add nsw i64 %indvars.iv28.i, -1
  %48 = trunc i32 %.02126.i to i8
  %49 = getelementptr i8, ptr %.033, i64 %indvars.iv28.i
  store i8 %48, ptr %49, align 1, !tbaa !8
  %50 = lshr i32 %.02126.i, 8
  %51 = icmp sgt i64 %indvars.iv28.i, 1
  br i1 %51, label %47, label %52, !llvm.loop !20

52:                                               ; preds = %47
  %53 = getelementptr inbounds nuw i8, ptr %.033, i64 1
  %54 = zext nneg i32 %43 to i64
  %55 = getelementptr inbounds nuw i8, ptr %53, i64 %54
  br label %asn1_put_length.exit

asn1_put_length.exit:                             ; preds = %52, %39, %35
  %.134 = phi ptr [ %36, %35 ], [ %41, %39 ], [ %55, %52 ]
  store ptr %.134, ptr %0, align 8, !tbaa !3
  ret void
}